; Function Attrs: nofree norecurse nosync nounwind memory(argmem: readwrite) uwtable
define internal fastcc void @gen_vector_table15(ptr noundef captures(none) %0, ptr noundef readonly captures(none) %1) unnamed_addr #6 {
  %3 = getelementptr inbounds nuw i8, ptr %0, i64 80
  %4 = getelementptr inbounds nuw i8, ptr %0, i64 4176
  %5 = getelementptr inbounds nuw i8, ptr %0, i64 16480
  %6 = getelementptr inbounds nuw i8, ptr %0, i64 16496
  br label %7

7:                                                ; preds = %2, %._crit_edge
  %indvars.iv34 = phi i64 [ 0, %2 ], [ %indvars.iv.next35, %._crit_edge ]
  %.031 = phi ptr [ %1, %2 ], [ %.1.lcssa, %._crit_edge ]
  %8 = load i8, ptr %.031, align 1, !tbaa !39
  %9 = lshr i8 %8, 1
  %10 = zext nneg i8 %9 to i64
  %.126 = getelementptr inbounds nuw i8, ptr %.031, i64 1
  %.not = icmp ult i8 %8, 2
  br i1 %.not, label %._crit_edge, label %.lr.ph.preheader

.lr.ph.preheader:                                 ; preds = %7
  %wide.trip.count = zext nneg i8 %9 to i64
  br label %.lr.ph

.lr.ph:                                           ; preds = %.lr.ph.preheader, %.lr.ph
  %indvars.iv = phi i64 [ 0, %.lr.ph.preheader ], [ %indvars.iv.next, %.lr.ph ]
  %.128 = phi ptr [ %.126, %.lr.ph.preheader ], [ %.1, %.lr.ph ]
  %11 = load i8, ptr %.128, align 1, !tbaa !39
  %12 = zext i8 %11 to i32
  %13 = lshr i32 %12, 4
  %14 = and i32 %12, 15
  %15 = zext nneg i32 %13 to i64
  %16 = getelementptr inbounds nuw i16, ptr %5, i64 %15
  %17 = load i16, ptr %16, align 2, !tbaa !48
  %18 = sext i16 %17 to i32
  %19 = mul nsw i32 %18, 1057
  %20 = zext nneg i32 %14 to i64
  %21 = getelementptr inbounds nuw i16, ptr %5, i64 %20
  %22 = load i16, ptr %21, align 2, !tbaa !48
  %23 = sext i16 %22 to i32
  %24 = mul i32 %23, 69271552
  %25 = add i32 %24, %19
  %26 = shl i32 %25, 1
  %27 = add nuw nsw i64 %indvars.iv, %indvars.iv34
  %28 = getelementptr inbounds nuw [1024 x i32], ptr %3, i64 0, i64 %27
  store i32 %26, ptr %28, align 4, !tbaa !56
  %29 = getelementptr inbounds nuw i16, ptr %6, i64 %20
  %30 = load i16, ptr %29, align 2, !tbaa !48
  %31 = sext i16 %30 to i32
  %32 = getelementptr inbounds nuw i16, ptr %6, i64 %15
  %33 = load i16, ptr %32, align 2, !tbaa !48
  %34 = sext i16 %33 to i32
  %35 = shl nsw i32 %34, 10
  %36 = add nsw i32 %35, %31
  %37 = mul i32 %36, 131074
  %38 = getelementptr inbounds nuw [1024 x i32], ptr %4, i64 0, i64 %27
  store i32 %37, ptr %38, align 4, !tbaa !56
  %indvars.iv.next = add nuw nsw i64 %indvars.iv, 1
  %.1 = getelementptr inbounds nuw i8, ptr %.128, i64 1
  %exitcond.not = icmp eq i64 %indvars.iv.next, %wide.trip.count
  br i1 %exitcond.not, label %._crit_edge, label %.lr.ph, !llvm.loop !76

._crit_edge:                                      ; preds = %.lr.ph, %7
  %.024.lcssa = phi i64 [ 0, %7 ], [ %10, %.lr.ph ]
  %.1.lcssa = phi ptr [ %.126, %7 ], [ %.1, %.lr.ph ]
  %39 = add nuw i64 %indvars.iv34, 4294967295
  %40 = add i64 %39, %.024.lcssa
  %sext = shl i64 %40, 32
  %41 = ashr exact i64 %sext, 32
  %42 = getelementptr inbounds [1024 x i32], ptr %3, i64 0, i64 %41
  %43 = load i32, ptr %42, align 4, !tbaa !56
  %44 = or i32 %43, 1
  store i32 %44, ptr %42, align 4, !tbaa !56
  %45 = getelementptr inbounds [1024 x i32], ptr %4, i64 0, i64 %41
  %46 = load i32, ptr %45, align 4, !tbaa !56
  %47 = or i32 %46, 1
  store i32 %47, ptr %45, align 4, !tbaa !56
  %indvars.iv.next35 = add nuw nsw i64 %indvars.iv34, 4
  %48 = icmp samesign ult i64 %indvars.iv34, 1020
  br i1 %48, label %7, label %49, !llvm.loop !77

49:                                               ; preds = %._crit_edge
  ret void
}